(dp0
S'null'
p1
(I0
I0
F-0.07
F0.09999999999999999
tp2
sS'north'
p3
(I0
I90
F-0.07000000000000002
F-0.34000000000000047
tp4
sS'Antananaviro'
p5
(F-18.8792
F47.5079
F-0.21488444444444452
F0.20393277777777774
tp6
sS'Brisbane'
p7
(F-27.47
F153.026
F-0.41261111111111104
F0.2901444444444446
tp8
sS'west'
p9
(I-90
I0
F0.7700000000000008
F0.02
tp10
sS'Delhi'
p11
(F28.7041
F77.1025
F-0.29053277777777775
F0.018347222222222216
tp12
sS'Washington DC'
p13
(F38.9072
F-77.0369
F0.21615111111111113
F-0.14798277777777752
tp14
sS'London'
p15
(F51.5075
F-0.1278
F-0.07384722222222237
F-0.16071000000000002
tp16
sS'Honolulu'
p17
(F21.3069
F-157.8583
F0.6083716666666666
F-0.12699055555555572
tp18
sS'Brasilia'
p19
(F-15.8267
F-47.9218
F0.09207388888888887
F0.1737677777777779
tp20
sS'Juneau'
p21
(F58.3019
F-134.4197
F0.33389944444444447
F-0.2967761111111113
tp22
sS'east'
p23
(I90
I0
F-0.5300000000000005
F0.16
tp24
sS'south'
p25
(I0
I-90
F-0.060000000000000005
F0.5900000000000006
tp26
s.