(lp0
(S'null island'
p1
I0
I0
F-0.009999999999999997
F0.09
tp2
a(S'West'
p3
I-90
I0
F0.8000000000000008
F0.0
tp4
a(S'North'
p5
I0
I90
F-0.05
F-0.32000000000000045
tp6
a(S'East'
p7
I90
I0
F-0.49000000000000055
F0.12999999999999998
tp8
a(S'South'
p9
I0
I-90
F-0.03
F0.5700000000000006
tp10
a.