(dp0
S'null'
p1
(I0
I0
F-0.07
F0.09
tp2
sS'north'
p3
(I0
I90
F-0.09000000000000001
F-0.32000000000000045
tp4
sS'west'
p5
(I-90
I0
F0.7900000000000008
F0.0
tp6
sS'London'
p7
(F51.5075
F-0.1278
F-0.07384722222222237
F-0.16071000000000002
tp8
sS'Brasilia'
p9
(F-15.8267
F-47.9218
F0.09207388888888887
F0.1537677777777779
tp10
sS'Washington DC'
p11
(F38.9072
F-77.0369
F0.1861511111111111
F-0.17798277777777755
tp12
sS'east'
p13
(I90
I0
F-0.5300000000000005
F0.12999999999999998
tp14
sS'south'
p15
(I0
I-90
F-0.08
F0.5700000000000006
tp16
s.