(dp0
S'null'
p1
(I0
I0
F-0.07
F0.09
tp2
sS'north'
p3
(I0
I90
F-0.09000000000000001
F-0.32000000000000045
tp4
sS'Antananaviro'
p5
(F-18.8792
F47.5079
F-0.23488444444444445
F0.20393277777777782
tp6
sS'Brisbane'
p7
(F-27.47
F153.026
F-0.44261111111111107
F0.2701444444444446
tp8
sS'west'
p9
(I-90
I0
F0.7900000000000008
F0.0
tp10
sS'Delhi'
p11
(F28.7041
F77.1025
F-0.27053277777777773
F-0.021652777777777785
tp12
sS'Washington DC'
p13
(F38.9072
F-77.0369
F0.1861511111111111
F-0.17798277777777755
tp14
sS'London'
p15
(F51.5075
F-0.1278
F-0.07384722222222237
F-0.16071000000000002
tp16
sS'Honolulu'
p17
(F21.3069
F-157.8583
F0.5983716666666666
F-0.15699055555555574
tp18
sS'Brasilia'
p19
(F-15.8267
F-47.9218
F0.09207388888888887
F0.1537677777777779
tp20
sS'Juneau'
p21
(F58.3019
F-134.4197
F0.30389944444444444
F-0.3167761111111113
tp22
sS'east'
p23
(I90
I0
F-0.5300000000000005
F0.12999999999999998
tp24
sS'south'
p25
(I0
I-90
F-0.08
F0.5700000000000006
tp26
s.